; Function Attrs: nofree norecurse nosync nounwind memory(argmem: readwrite) uwtable
define internal void @h264_h_loop_filter_chroma422_12_c(ptr noundef captures(none) %0, i64 noundef %1, i32 noundef %2, i32 noundef %3, ptr noundef readonly captures(none) %4) #1 {
  %6 = shl i32 %2, 4
  %7 = shl i32 %3, 4
  %8 = ashr i64 %1, 1
  %.idx = shl nsw i64 %8, 3
  br label %9

9:                                                ; preds = %5, %.loopexit
  %indvars.iv = phi i64 [ 0, %5 ], [ %indvars.iv.next, %.loopexit ]
  %.0.i7 = phi ptr [ %0, %5 ], [ %.1.i, %.loopexit ]
  %10 = getelementptr inbounds nuw i8, ptr %4, i64 %indvars.iv
  %11 = load i8, ptr %10, align 1, !tbaa !42
  %12 = sext i8 %11 to i32
  %13 = shl nsw i32 %12, 4
  %14 = add nsw i32 %13, -15
  %15 = icmp slt i8 %11, 1
  br i1 %15, label %17, label %.preheader

.preheader:                                       ; preds = %9
  %16 = sub nsw i32 15, %13
  br label %19

17:                                               ; preds = %9
  %18 = getelementptr inbounds i8, ptr %.0.i7, i64 %.idx
  br label %.loopexit

19:                                               ; preds = %.preheader, %58
  %.2.i5 = phi ptr [ %.0.i7, %.preheader ], [ %59, %58 ]
  %.059.i4 = phi i32 [ 0, %.preheader ], [ %60, %58 ]
  %20 = getelementptr inbounds i8, ptr %.2.i5, i64 -2
  %21 = load i16, ptr %20, align 2, !tbaa !37
  %22 = zext i16 %21 to i32
  %23 = getelementptr inbounds i8, ptr %.2.i5, i64 -4
  %24 = load i16, ptr %23, align 2, !tbaa !37
  %25 = zext i16 %24 to i32
  %26 = load i16, ptr %.2.i5, align 2, !tbaa !37
  %27 = zext i16 %26 to i32
  %28 = getelementptr inbounds nuw i8, ptr %.2.i5, i64 2
  %29 = load i16, ptr %28, align 2, !tbaa !37
  %30 = zext i16 %29 to i32
  %31 = sub nsw i32 %22, %27
  %32 = tail call i32 @llvm.abs.i32(i32 %31, i1 true)
  %33 = icmp slt i32 %32, %6
  br i1 %33, label %34, label %58

34:                                               ; preds = %19
  %35 = sub nsw i32 %25, %22
  %36 = tail call i32 @llvm.abs.i32(i32 %35, i1 true)
  %37 = icmp slt i32 %36, %7
  br i1 %37, label %38, label %58

38:                                               ; preds = %34
  %39 = sub nsw i32 %30, %27
  %40 = tail call i32 @llvm.abs.i32(i32 %39, i1 true)
  %41 = icmp samesign ult i32 %40, %7
  br i1 %41, label %42, label %58

42:                                               ; preds = %38
  %43 = sub nsw i32 %27, %22
  %44 = shl nsw i32 %43, 2
  %45 = add nuw nsw i32 %25, 4
  %46 = sub nsw i32 %45, %30
  %47 = add nsw i32 %46, %44
  %48 = ashr i32 %47, 3
  %49 = icmp slt i32 %48, %16
  %..i.i = tail call i32 @llvm.smin.i32(i32 %48, i32 %14)
  %.0.i71.i = select i1 %49, i32 %16, i32 %..i.i
  %50 = add nsw i32 %.0.i71.i, %22
  %51 = tail call i32 @llvm.smax.i32(i32 %50, i32 0)
  %52 = tail call i32 @llvm.umin.i32(i32 %51, i32 4095)
  %53 = trunc nuw nsw i32 %52 to i16
  store i16 %53, ptr %20, align 2, !tbaa !37
  %54 = sub nsw i32 %27, %.0.i71.i
  %55 = tail call i32 @llvm.smax.i32(i32 %54, i32 0)
  %56 = tail call i32 @llvm.umin.i32(i32 %55, i32 4095)
  %57 = trunc nuw nsw i32 %56 to i16
  store i16 %57, ptr %.2.i5, align 2, !tbaa !37
  br label %58

58:                                               ; preds = %42, %38, %34, %19
  %59 = getelementptr inbounds i16, ptr %.2.i5, i64 %8
  %60 = add nuw nsw i32 %.059.i4, 1
  %exitcond.not = icmp eq i32 %60, 4
  br i1 %exitcond.not, label %.loopexit, label %19, !llvm.loop !84

.loopexit:                                        ; preds = %58, %17
  %.1.i = phi ptr [ %18, %17 ], [ %59, %58 ]
  %indvars.iv.next = add nuw nsw i64 %indvars.iv, 1
  %exitcond9.not = icmp eq i64 %indvars.iv.next, 4
  br i1 %exitcond9.not, label %h264_loop_filter_chroma_12_c.exit, label %9, !llvm.loop !85

h264_loop_filter_chroma_12_c.exit:                ; preds = %.loopexit
  ret void
}